target datalayout = "e-m:e-p270:32:32-p271:32:32-p272:64:64-i64:64-i128:128-f80:128-n8:16:32:64-S128"
target triple = "x86_64-pc-linux-gnu"

%class.NumberlikeArray = type { i32, i32, ptr }

; Function Attrs: mustprogress nounwind uwtable
define noundef i32 @_ZNK11BigUnsigned9compareToERKS_(ptr noundef nonnull align 8 dereferenceable(16) %0, ptr noundef nonnull align 8 dereferenceable(16) %1) #1 align 2 {
  %3 = alloca i32, align 4
  %4 = alloca ptr, align 8
  %5 = alloca ptr, align 8
  %6 = alloca i32, align 4
  %7 = alloca i32, align 4
  store ptr %0, ptr %4, align 8, !tbaa !6
  store ptr %1, ptr %5, align 8, !tbaa !6
  %8 = load ptr, ptr %4, align 8
  %9 = getelementptr inbounds nuw %class.NumberlikeArray, ptr %8, i32 0, i32 1
  %10 = load i32, ptr %9, align 4, !tbaa !19
  %11 = load ptr, ptr %5, align 8, !tbaa !6
  %12 = getelementptr inbounds nuw %class.NumberlikeArray, ptr %11, i32 0, i32 1
  %13 = load i32, ptr %12, align 4, !tbaa !19
  %14 = icmp ult i32 %10, %13
  br i1 %14, label %15, label %16

15:                                               ; preds = %2
  store i32 -1, ptr %3, align 4
  br label %67

16:                                               ; preds = %2
  %17 = getelementptr inbounds nuw %class.NumberlikeArray, ptr %8, i32 0, i32 1
  %18 = load i32, ptr %17, align 4, !tbaa !19
  %19 = load ptr, ptr %5, align 8, !tbaa !6
  %20 = getelementptr inbounds nuw %class.NumberlikeArray, ptr %19, i32 0, i32 1
  %21 = load i32, ptr %20, align 4, !tbaa !19
  %22 = icmp ugt i32 %18, %21
  br i1 %22, label %23, label %24

23:                                               ; preds = %16
  store i32 1, ptr %3, align 4
  br label %67

24:                                               ; preds = %16
  call void @llvm.lifetime.start.p0(i64 4, ptr %6) #7
  %25 = getelementptr inbounds nuw %class.NumberlikeArray, ptr %8, i32 0, i32 1
  %26 = load i32, ptr %25, align 4, !tbaa !19
  store i32 %26, ptr %6, align 4, !tbaa !21
  br label %27

27:                                               ; preds = %47, %24
  %28 = load i32, ptr %6, align 4, !tbaa !21
  %29 = icmp ugt i32 %28, 0
  br i1 %29, label %30, label %65

30:                                               ; preds = %27
  %31 = load i32, ptr %6, align 4, !tbaa !21
  %32 = add i32 %31, -1
  store i32 %32, ptr %6, align 4, !tbaa !21
  %33 = getelementptr inbounds nuw %class.NumberlikeArray, ptr %8, i32 0, i32 2
  %34 = load ptr, ptr %33, align 8, !tbaa !20
  %35 = load i32, ptr %6, align 4, !tbaa !21
  %36 = zext i32 %35 to i64
  %37 = getelementptr inbounds nuw i64, ptr %34, i64 %36
  %38 = load i64, ptr %37, align 8, !tbaa !11
  %39 = load ptr, ptr %5, align 8, !tbaa !6
  %40 = getelementptr inbounds nuw %class.NumberlikeArray, ptr %39, i32 0, i32 2
  %41 = load ptr, ptr %40, align 8, !tbaa !20
  %42 = load i32, ptr %6, align 4, !tbaa !21
  %43 = zext i32 %42 to i64
  %44 = getelementptr inbounds nuw i64, ptr %41, i64 %43
  %45 = load i64, ptr %44, align 8, !tbaa !11
  %46 = icmp eq i64 %38, %45
  br i1 %46, label %47, label %48

47:                                               ; preds = %30
  br label %27, !llvm.loop !36

48:                                               ; preds = %30
  %49 = getelementptr inbounds nuw %class.NumberlikeArray, ptr %8, i32 0, i32 2
  %50 = load ptr, ptr %49, align 8, !tbaa !20
  %51 = load i32, ptr %6, align 4, !tbaa !21
  %52 = zext i32 %51 to i64
  %53 = getelementptr inbounds nuw i64, ptr %50, i64 %52
  %54 = load i64, ptr %53, align 8, !tbaa !11
  %55 = load ptr, ptr %5, align 8, !tbaa !6
  %56 = getelementptr inbounds nuw %class.NumberlikeArray, ptr %55, i32 0, i32 2
  %57 = load ptr, ptr %56, align 8, !tbaa !20
  %58 = load i32, ptr %6, align 4, !tbaa !21
  %59 = zext i32 %58 to i64
  %60 = getelementptr inbounds nuw i64, ptr %57, i64 %59
  %61 = load i64, ptr %60, align 8, !tbaa !11
  %62 = icmp ugt i64 %54, %61
  br i1 %62, label %63, label %64

63:                                               ; preds = %48
  store i32 1, ptr %3, align 4
  store i32 1, ptr %7, align 4
  br label %66

64:                                               ; preds = %48
  store i32 -1, ptr %3, align 4
  store i32 1, ptr %7, align 4
  br label %66

65:                                               ; preds = %27
  store i32 0, ptr %3, align 4
  store i32 1, ptr %7, align 4
  br label %66

66:                                               ; preds = %65, %64, %63
  call void @llvm.lifetime.end.p0(i64 4, ptr %6) #7
  br label %67

67:                                               ; preds = %66, %23, %15
  %68 = load i32, ptr %3, align 4
  ret i32 %68
}