; Function Attrs: mustprogress nofree norecurse nosync nounwind willreturn memory(read, inaccessiblemem: none) uwtable
define noundef range(i32 -1, 2) i32 @_ZNK11BigUnsigned9compareToERKS_(ptr noundef nonnull readonly align 8 captures(none) dereferenceable(16) %0, ptr noundef nonnull readonly align 8 captures(none) dereferenceable(16) %1) local_unnamed_addr #2 align 2 {
  %3 = getelementptr inbounds nuw i8, ptr %0, i64 4
  %4 = load i32, ptr %3, align 4, !tbaa !14
  %5 = getelementptr inbounds nuw i8, ptr %1, i64 4
  %6 = load i32, ptr %5, align 4, !tbaa !14
  %7 = icmp ult i32 %4, %6
  br i1 %7, label %.loopexit, label %8

8:                                                ; preds = %2
  %9 = icmp ugt i32 %4, %6
  br i1 %9, label %.loopexit, label %.preheader

.preheader:                                       ; preds = %8
  %10 = getelementptr inbounds nuw i8, ptr %0, i64 8
  %11 = load ptr, ptr %10, align 8
  %12 = getelementptr inbounds nuw i8, ptr %1, i64 8
  %13 = load ptr, ptr %12, align 8
  %14 = zext i32 %4 to i64
  br label %15

15:                                               ; preds = %.preheader, %16
  %indvars.iv = phi i64 [ %14, %.preheader ], [ %17, %16 ]
  %.not = icmp eq i64 %indvars.iv, 0
  br i1 %.not, label %.loopexit, label %16

16:                                               ; preds = %15
  %17 = add nsw i64 %indvars.iv, -1
  %18 = getelementptr inbounds nuw i64, ptr %11, i64 %17
  %19 = load i64, ptr %18, align 8, !tbaa !15
  %20 = getelementptr inbounds nuw i64, ptr %13, i64 %17
  %21 = load i64, ptr %20, align 8, !tbaa !15
  %22 = icmp eq i64 %19, %21
  br i1 %22, label %15, label %23, !llvm.loop !22

23:                                               ; preds = %16
  %24 = icmp ugt i64 %19, %21
  %. = select i1 %24, i32 1, i32 -1
  br label %.loopexit

.loopexit:                                        ; preds = %15, %23, %8, %2
  %.011 = phi i32 [ -1, %2 ], [ 1, %8 ], [ %., %23 ], [ 0, %15 ]
  ret i32 %.011
}